target datalayout = "e-m:e-p270:32:32-p271:32:32-p272:64:64-i64:64-i128:128-f80:128-n8:16:32:64-S128"
target triple = "x86_64-pc-linux-gnu"

; Function Attrs: inlinehint nounwind sspstrong willreturn memory(none) uwtable
define internal i64 @RB_INT2FIX(i64 noundef %0) #5 {
  %2 = alloca i64, align 8
  %3 = alloca i64, align 8
  %4 = alloca i64, align 8
  %5 = alloca i64, align 8
  %6 = alloca i64, align 8
  %7 = alloca i64, align 8
  store i64 %0, ptr %2, align 8, !tbaa !7
  call void @llvm.lifetime.start.p0(i64 8, ptr %3) #28
  %8 = load i64, ptr %2, align 8, !tbaa !7
  store i64 %8, ptr %3, align 8, !tbaa !7
  call void @llvm.lifetime.start.p0(i64 8, ptr %4) #28
  %9 = load i64, ptr %3, align 8, !tbaa !7
  %10 = shl i64 %9, 1
  %11 = add i64 %10, 1
  store i64 %11, ptr %4, align 8, !tbaa !7
  call void @llvm.lifetime.start.p0(i64 8, ptr %5) #28
  %12 = load i64, ptr %4, align 8, !tbaa !7
  store i64 %12, ptr %5, align 8, !tbaa !7
  call void @llvm.lifetime.start.p0(i64 8, ptr %6) #28
  %13 = load i64, ptr %5, align 8, !tbaa !7
  store i64 %13, ptr %6, align 8, !tbaa !7
  call void @llvm.lifetime.start.p0(i64 8, ptr %7) #28
  %14 = load i64, ptr %6, align 8, !tbaa !7
  store i64 %14, ptr %7, align 8, !tbaa !7
  %15 = load i64, ptr %7, align 8, !tbaa !7
  call void @llvm.lifetime.end.p0(i64 8, ptr %7) #28
  call void @llvm.lifetime.end.p0(i64 8, ptr %6) #28
  call void @llvm.lifetime.end.p0(i64 8, ptr %5) #28
  call void @llvm.lifetime.end.p0(i64 8, ptr %4) #28
  call void @llvm.lifetime.end.p0(i64 8, ptr %3) #28
  ret i64 %15
}

; Function Attrs: nounwind sspstrong uwtable
define dso_local i64 @rb_hash(i64 noundef %0) #0 {
  %2 = alloca i64, align 8
  store i64 %0, ptr %2, align 8, !tbaa !7
  %3 = load i64, ptr %2, align 8, !tbaa !7
  %4 = call i64 @any_hash(i64 noundef %3, ptr noundef @obj_any_hash)
  %5 = call i64 @RB_INT2FIX(i64 noundef %4) #27
  ret i64 %5
}

; Function Attrs: nounwind sspstrong uwtable
define internal i32 @hash_i(i64 noundef %0, i64 noundef %1, i64 noundef %2) #0 {
  %4 = alloca i64, align 8
  %5 = alloca i64, align 8
  %6 = alloca i64, align 8
  %7 = alloca ptr, align 8
  %8 = alloca [2 x i64], align 16
  store i64 %0, ptr %4, align 8, !tbaa !7
  store i64 %1, ptr %5, align 8, !tbaa !7
  store i64 %2, ptr %6, align 8, !tbaa !7
  call void @llvm.lifetime.start.p0(i64 8, ptr %7) #28
  %9 = load i64, ptr %6, align 8, !tbaa !7
  %10 = inttoptr i64 %9 to ptr
  store ptr %10, ptr %7, align 8, !tbaa !11
  call void @llvm.lifetime.start.p0(i64 16, ptr %8) #28
  %11 = load i64, ptr %4, align 8, !tbaa !7
  %12 = call i64 @rb_hash(i64 noundef %11)
  %13 = getelementptr [2 x i64], ptr %8, i64 0, i64 0
  store i64 %12, ptr %13, align 16, !tbaa !7
  %14 = load i64, ptr %5, align 8, !tbaa !7
  %15 = call i64 @rb_hash(i64 noundef %14)
  %16 = getelementptr [2 x i64], ptr %8, i64 0, i64 1
  store i64 %15, ptr %16, align 8, !tbaa !7
  %17 = getelementptr inbounds [2 x i64], ptr %8, i64 0, i64 0
  %18 = call i64 @rb_st_hash(ptr noundef %17, i64 noundef 16, i64 noundef 0) #26
  %19 = load ptr, ptr %7, align 8, !tbaa !11
  %20 = load i64, ptr %19, align 8, !tbaa !7
  %21 = xor i64 %20, %18
  store i64 %21, ptr %19, align 8, !tbaa !7
  call void @llvm.lifetime.end.p0(i64 16, ptr %8) #28
  call void @llvm.lifetime.end.p0(i64 8, ptr %7) #28
  ret i32 0
}