; Function Attrs: nounwind sspstrong uwtable
define internal noundef i32 @hash_i(i64 noundef %0, i64 noundef %1, i64 noundef %2) #0 {
  %4 = alloca [2 x i64], align 16
  %5 = inttoptr i64 %2 to ptr
  call void @llvm.lifetime.start.p0(i64 16, ptr nonnull %4) #28
  %6 = tail call fastcc i64 @any_hash(i64 noundef %0, ptr noundef nonnull @obj_any_hash)
  %7 = shl nsw i64 %6, 1
  %8 = or disjoint i64 %7, 1
  store i64 %8, ptr %4, align 16, !tbaa !7
  %9 = tail call fastcc i64 @any_hash(i64 noundef %1, ptr noundef nonnull @obj_any_hash)
  %10 = shl nsw i64 %9, 1
  %11 = or disjoint i64 %10, 1
  %12 = getelementptr inbounds nuw i8, ptr %4, i64 8
  store i64 %11, ptr %12, align 8, !tbaa !7
  %13 = call i64 @rb_st_hash(ptr noundef nonnull %4, i64 noundef 16, i64 noundef 0) #29
  %14 = load i64, ptr %5, align 8, !tbaa !7
  %15 = xor i64 %14, %13
  store i64 %15, ptr %5, align 8, !tbaa !7
  call void @llvm.lifetime.end.p0(i64 16, ptr nonnull %4) #28
  ret i32 0
}